target datalayout = "e-m:e-p270:32:32-p271:32:32-p272:64:64-i64:64-i128:128-f80:128-n8:16:32:64-S128"
target triple = "x86_64-pc-linux-gnu"

%struct.string_int_pair_st = type { ptr, i32 }

@.str.1 = private unnamed_addr constant [2 x i8] c"\0A\00", align 1
@.str.15 = private unnamed_addr constant [25 x i8] c"Peer signing digest: %s\0A\00", align 1
@.str.16 = private unnamed_addr constant [25 x i8] c"Peer signature type: %s\0A\00", align 1
@.str.120 = private unnamed_addr constant [27 x i8] c"Client Certificate Types: \00", align 1
@.str.121 = private unnamed_addr constant [3 x i8] c", \00", align 1
@.str.122 = private unnamed_addr constant [14 x i8] c"UNKNOWN (%d),\00", align 1
@.str.145 = private unnamed_addr constant [4 x i8] c"RSA\00", align 1
@.str.146 = private unnamed_addr constant [8 x i8] c"RSA-PSS\00", align 1
@.str.147 = private unnamed_addr constant [4 x i8] c"DSA\00", align 1
@.str.148 = private unnamed_addr constant [6 x i8] c"ECDSA\00", align 1
@.str.149 = private unnamed_addr constant [8 x i8] c"ed25519\00", align 1
@.str.150 = private unnamed_addr constant [6 x i8] c"ed448\00", align 1
@.str.151 = private unnamed_addr constant [9 x i8] c"gost2001\00", align 1
@.str.152 = private unnamed_addr constant [13 x i8] c"gost2012_256\00", align 1
@.str.153 = private unnamed_addr constant [13 x i8] c"gost2012_512\00", align 1

; Function Attrs: nounwind uwtable
define internal ptr @lookup(i32 noundef %0, ptr noundef %1, ptr noundef %2) #0 {
  %4 = alloca ptr, align 8
  %5 = alloca i32, align 4
  %6 = alloca ptr, align 8
  %7 = alloca ptr, align 8
  store i32 %0, ptr %5, align 4, !tbaa !3
  store ptr %1, ptr %6, align 8, !tbaa !59
  store ptr %2, ptr %7, align 8, !tbaa !21
  br label %8

8:                                                ; preds = %24, %3
  %9 = load ptr, ptr %6, align 8, !tbaa !59
  %10 = getelementptr inbounds nuw %struct.string_int_pair_st, ptr %9, i32 0, i32 0
  %11 = load ptr, ptr %10, align 8, !tbaa !61
  %12 = icmp ne ptr %11, null
  br i1 %12, label %13, label %27

13:                                               ; preds = %8
  %14 = load ptr, ptr %6, align 8, !tbaa !59
  %15 = getelementptr inbounds nuw %struct.string_int_pair_st, ptr %14, i32 0, i32 1
  %16 = load i32, ptr %15, align 8, !tbaa !63
  %17 = load i32, ptr %5, align 4, !tbaa !3
  %18 = icmp eq i32 %16, %17
  br i1 %18, label %19, label %23

19:                                               ; preds = %13
  %20 = load ptr, ptr %6, align 8, !tbaa !59
  %21 = getelementptr inbounds nuw %struct.string_int_pair_st, ptr %20, i32 0, i32 0
  %22 = load ptr, ptr %21, align 8, !tbaa !61
  store ptr %22, ptr %4, align 8
  br label %29

23:                                               ; preds = %13
  br label %24

24:                                               ; preds = %23
  %25 = load ptr, ptr %6, align 8, !tbaa !59
  %26 = getelementptr inbounds nuw %struct.string_int_pair_st, ptr %25, i32 1
  store ptr %26, ptr %6, align 8, !tbaa !59
  br label %8, !llvm.loop !64

27:                                               ; preds = %8
  %28 = load ptr, ptr %7, align 8, !tbaa !21
  store ptr %28, ptr %4, align 8
  br label %29

29:                                               ; preds = %27, %19
  %30 = load ptr, ptr %4, align 8
  ret ptr %30
}

; Function Attrs: nounwind uwtable
define internal ptr @get_sigtype(i32 noundef %0) #0 {
  %2 = alloca ptr, align 8
  %3 = alloca i32, align 4
  store i32 %0, ptr %3, align 4, !tbaa !3
  %4 = load i32, ptr %3, align 4, !tbaa !3
  switch i32 %4, label %14 [
    i32 6, label %5
    i32 912, label %6
    i32 116, label %7
    i32 408, label %8
    i32 1087, label %9
    i32 1088, label %10
    i32 811, label %11
    i32 979, label %12
    i32 980, label %13
  ]

5:                                                ; preds = %1
  store ptr @.str.145, ptr %2, align 8
  br label %17

6:                                                ; preds = %1
  store ptr @.str.146, ptr %2, align 8
  br label %17

7:                                                ; preds = %1
  store ptr @.str.147, ptr %2, align 8
  br label %17

8:                                                ; preds = %1
  store ptr @.str.148, ptr %2, align 8
  br label %17

9:                                                ; preds = %1
  store ptr @.str.149, ptr %2, align 8
  br label %17

10:                                               ; preds = %1
  store ptr @.str.150, ptr %2, align 8
  br label %17

11:                                               ; preds = %1
  store ptr @.str.151, ptr %2, align 8
  br label %17

12:                                               ; preds = %1
  store ptr @.str.152, ptr %2, align 8
  br label %17

13:                                               ; preds = %1
  store ptr @.str.153, ptr %2, align 8
  br label %17

14:                                               ; preds = %1
  %15 = load i32, ptr %3, align 4, !tbaa !3
  %16 = call ptr @OBJ_nid2sn(i32 noundef %15)
  store ptr %16, ptr %2, align 8
  br label %17

17:                                               ; preds = %14, %13, %12, %11, %10, %9, %8, %7, %6, %5
  %18 = load ptr, ptr %2, align 8
  ret ptr %18
}

; Function Attrs: nounwind uwtable
define internal void @ssl_print_client_cert_types(ptr noundef %0, ptr noundef %1) #0 {
  %3 = alloca ptr, align 8
  %4 = alloca ptr, align 8
  %5 = alloca ptr, align 8
  %6 = alloca i32, align 4
  %7 = alloca i32, align 4
  %8 = alloca i32, align 4
  %9 = alloca i8, align 1
  %10 = alloca ptr, align 8
  store ptr %0, ptr %3, align 8, !tbaa !14
  store ptr %1, ptr %4, align 8, !tbaa !27
  call void @llvm.lifetime.start.p0(i64 8, ptr %5) #10
  call void @llvm.lifetime.start.p0(i64 4, ptr %6) #10
  call void @llvm.lifetime.start.p0(i64 4, ptr %7) #10
  %11 = load ptr, ptr %4, align 8, !tbaa !27
  %12 = call i64 @SSL_ctrl(ptr noundef %11, i32 noundef 103, i64 noundef 0, ptr noundef %5)
  %13 = trunc i64 %12 to i32
  store i32 %13, ptr %7, align 4, !tbaa !3
  %14 = load i32, ptr %7, align 4, !tbaa !3
  %15 = icmp ne i32 %14, 0
  br i1 %15, label %17, label %16

16:                                               ; preds = %2
  store i32 1, ptr %8, align 4
  br label %57

17:                                               ; preds = %2
  %18 = load ptr, ptr %3, align 8, !tbaa !14
  %19 = call i32 @BIO_puts(ptr noundef %18, ptr noundef @.str.120)
  store i32 0, ptr %6, align 4, !tbaa !3
  br label %20

20:                                               ; preds = %51, %17
  %21 = load i32, ptr %6, align 4, !tbaa !3
  %22 = load i32, ptr %7, align 4, !tbaa !3
  %23 = icmp slt i32 %21, %22
  br i1 %23, label %24, label %54

24:                                               ; preds = %20
  call void @llvm.lifetime.start.p0(i64 1, ptr %9) #10
  %25 = load ptr, ptr %5, align 8, !tbaa !21
  %26 = load i32, ptr %6, align 4, !tbaa !3
  %27 = sext i32 %26 to i64
  %28 = getelementptr inbounds i8, ptr %25, i64 %27
  %29 = load i8, ptr %28, align 1, !tbaa !29
  store i8 %29, ptr %9, align 1, !tbaa !29
  call void @llvm.lifetime.start.p0(i64 8, ptr %10) #10
  %30 = load i8, ptr %9, align 1, !tbaa !29
  %31 = zext i8 %30 to i32
  %32 = call ptr @lookup(i32 noundef %31, ptr noundef @cert_type_list, ptr noundef null)
  store ptr %32, ptr %10, align 8, !tbaa !21
  %33 = load i32, ptr %6, align 4, !tbaa !3
  %34 = icmp ne i32 %33, 0
  br i1 %34, label %35, label %38

35:                                               ; preds = %24
  %36 = load ptr, ptr %3, align 8, !tbaa !14
  %37 = call i32 @BIO_puts(ptr noundef %36, ptr noundef @.str.121)
  br label %38

38:                                               ; preds = %35, %24
  %39 = load ptr, ptr %10, align 8, !tbaa !21
  %40 = icmp ne ptr %39, null
  br i1 %40, label %41, label %45

41:                                               ; preds = %38
  %42 = load ptr, ptr %3, align 8, !tbaa !14
  %43 = load ptr, ptr %10, align 8, !tbaa !21
  %44 = call i32 @BIO_puts(ptr noundef %42, ptr noundef %43)
  br label %50

45:                                               ; preds = %38
  %46 = load ptr, ptr %3, align 8, !tbaa !14
  %47 = load i8, ptr %9, align 1, !tbaa !29
  %48 = zext i8 %47 to i32
  %49 = call i32 (ptr, ptr, ...) @BIO_printf(ptr noundef %46, ptr noundef @.str.122, i32 noundef %48)
  br label %50

50:                                               ; preds = %45, %41
  call void @llvm.lifetime.end.p0(i64 8, ptr %10) #10
  call void @llvm.lifetime.end.p0(i64 1, ptr %9) #10
  br label %51

51:                                               ; preds = %50
  %52 = load i32, ptr %6, align 4, !tbaa !3
  %53 = add nsw i32 %52, 1
  store i32 %53, ptr %6, align 4, !tbaa !3
  br label %20, !llvm.loop !30

54:                                               ; preds = %20
  %55 = load ptr, ptr %3, align 8, !tbaa !14
  %56 = call i32 @BIO_puts(ptr noundef %55, ptr noundef @.str.1)
  store i32 0, ptr %8, align 4
  br label %57

57:                                               ; preds = %54, %16
  call void @llvm.lifetime.end.p0(i64 4, ptr %7) #10
  call void @llvm.lifetime.end.p0(i64 4, ptr %6) #10
  call void @llvm.lifetime.end.p0(i64 8, ptr %5) #10
  %58 = load i32, ptr %8, align 4
  switch i32 %58, label %60 [
    i32 0, label %59
    i32 1, label %59
  ]

59:                                               ; preds = %57, %57
  ret void

60:                                               ; preds = %57
  unreachable
}

; Function Attrs: nounwind uwtable
define i32 @ssl_print_sigalgs(ptr noundef %0, ptr noundef %1) #0 {
  %3 = alloca ptr, align 8
  %4 = alloca ptr, align 8
  %5 = alloca i32, align 4
  store ptr %0, ptr %3, align 8, !tbaa !14
  store ptr %1, ptr %4, align 8, !tbaa !27
  call void @llvm.lifetime.start.p0(i64 4, ptr %5) #10
  %6 = load ptr, ptr %4, align 8, !tbaa !27
  %7 = call i32 @SSL_is_server(ptr noundef %6)
  %8 = icmp ne i32 %7, 0
  br i1 %8, label %12, label %9

9:                                                ; preds = %2
  %10 = load ptr, ptr %3, align 8, !tbaa !14
  %11 = load ptr, ptr %4, align 8, !tbaa !27
  call void @ssl_print_client_cert_types(ptr noundef %10, ptr noundef %11)
  br label %12

12:                                               ; preds = %9, %2
  %13 = load ptr, ptr %3, align 8, !tbaa !14
  %14 = load ptr, ptr %4, align 8, !tbaa !27
  %15 = call i32 @do_print_sigalgs(ptr noundef %13, ptr noundef %14, i32 noundef 0)
  %16 = load ptr, ptr %3, align 8, !tbaa !14
  %17 = load ptr, ptr %4, align 8, !tbaa !27
  %18 = call i32 @do_print_sigalgs(ptr noundef %16, ptr noundef %17, i32 noundef 1)
  %19 = load ptr, ptr %4, align 8, !tbaa !27
  %20 = call i64 @SSL_ctrl(ptr noundef %19, i32 noundef 108, i64 noundef 0, ptr noundef %5)
  %21 = icmp ne i64 %20, 0
  br i1 %21, label %22, label %30

22:                                               ; preds = %12
  %23 = load i32, ptr %5, align 4, !tbaa !3
  %24 = icmp ne i32 %23, 0
  br i1 %24, label %25, label %30

25:                                               ; preds = %22
  %26 = load ptr, ptr %3, align 8, !tbaa !14
  %27 = load i32, ptr %5, align 4, !tbaa !3
  %28 = call ptr @OBJ_nid2sn(i32 noundef %27)
  %29 = call i32 (ptr, ptr, ...) @BIO_printf(ptr noundef %26, ptr noundef @.str.15, ptr noundef %28)
  br label %30

30:                                               ; preds = %25, %22, %12
  %31 = load ptr, ptr %4, align 8, !tbaa !27
  %32 = call i32 @SSL_get_peer_signature_type_nid(ptr noundef %31, ptr noundef %5)
  %33 = icmp ne i32 %32, 0
  br i1 %33, label %34, label %39

34:                                               ; preds = %30
  %35 = load ptr, ptr %3, align 8, !tbaa !14
  %36 = load i32, ptr %5, align 4, !tbaa !3
  %37 = call ptr @get_sigtype(i32 noundef %36)
  %38 = call i32 (ptr, ptr, ...) @BIO_printf(ptr noundef %35, ptr noundef @.str.16, ptr noundef %37)
  br label %39

39:                                               ; preds = %34, %30
  call void @llvm.lifetime.end.p0(i64 4, ptr %5) #10
  ret i32 1
}