; Function Attrs: nounwind uwtable
define noundef i32 @ssl_print_sigalgs(ptr noundef %0, ptr noundef %1) local_unnamed_addr #0 {
  %3 = alloca ptr, align 8
  %4 = alloca i32, align 4
  call void @llvm.lifetime.start.p0(i64 4, ptr nonnull %4) #6
  %5 = tail call i32 @SSL_is_server(ptr noundef %1) #6
  %.not = icmp eq i32 %5, 0
  br i1 %.not, label %6, label %31

6:                                                ; preds = %2
  call void @llvm.lifetime.start.p0(i64 8, ptr nonnull %3) #6
  %7 = call i64 @SSL_ctrl(ptr noundef %1, i32 noundef 103, i64 noundef 0, ptr noundef nonnull %3) #6
  %8 = trunc i64 %7 to i32
  %.not.i = icmp eq i32 %8, 0
  br i1 %.not.i, label %ssl_print_client_cert_types.exit, label %9

9:                                                ; preds = %6
  %10 = call i32 @BIO_puts(ptr noundef %0, ptr noundef nonnull @.str.120) #6
  %11 = icmp sgt i32 %8, 0
  br i1 %11, label %.lr.ph22.preheader.i, label %._crit_edge.i

.lr.ph22.preheader.i:                             ; preds = %9
  %wide.trip.count.i = and i64 %7, 2147483647
  br label %.lr.ph22.i

.lr.ph22.i:                                       ; preds = %29, %.lr.ph22.preheader.i
  %indvars.iv.i = phi i64 [ 0, %.lr.ph22.preheader.i ], [ %indvars.iv.next.i, %29 ]
  %12 = load ptr, ptr %3, align 8, !tbaa !13
  %13 = getelementptr inbounds nuw i8, ptr %12, i64 %indvars.iv.i
  %14 = load i8, ptr %13, align 1, !tbaa !15
  %15 = zext i8 %14 to i32
  %16 = icmp eq i8 %14, 1
  br i1 %16, label %lookup.exit.i, label %.lr.ph.i

.lr.ph.i:                                         ; preds = %.lr.ph22.i, %.lr.ph.i.i
  %.069.i19.i = phi ptr [ %17, %.lr.ph.i.i ], [ @cert_type_list, %.lr.ph22.i ]
  %17 = getelementptr inbounds nuw i8, ptr %.069.i19.i, i64 16
  %18 = load ptr, ptr %17, align 8, !tbaa !16
  %.not.i.i = icmp eq ptr %18, null
  br i1 %.not.i.i, label %lookup.exit.i, label %.lr.ph.i.i, !llvm.loop !18

.lr.ph.i.i:                                       ; preds = %.lr.ph.i
  %19 = getelementptr inbounds nuw i8, ptr %.069.i19.i, i64 24
  %20 = load i32, ptr %19, align 8, !tbaa !20
  %21 = icmp eq i32 %20, %15
  br i1 %21, label %lookup.exit.i, label %.lr.ph.i, !llvm.loop !18

lookup.exit.i:                                    ; preds = %.lr.ph.i.i, %.lr.ph.i, %.lr.ph22.i
  %.0.i.i = phi ptr [ @.str.123, %.lr.ph22.i ], [ null, %.lr.ph.i ], [ %18, %.lr.ph.i.i ]
  %.not17.i = icmp eq i64 %indvars.iv.i, 0
  br i1 %.not17.i, label %24, label %22

22:                                               ; preds = %lookup.exit.i
  %23 = call i32 @BIO_puts(ptr noundef %0, ptr noundef nonnull @.str.121) #6
  br label %24

24:                                               ; preds = %22, %lookup.exit.i
  %.not18.i = icmp eq ptr %.0.i.i, null
  br i1 %.not18.i, label %27, label %25

25:                                               ; preds = %24
  %26 = call i32 @BIO_puts(ptr noundef %0, ptr noundef nonnull %.0.i.i) #6
  br label %29

27:                                               ; preds = %24
  %28 = call i32 (ptr, ptr, ...) @BIO_printf(ptr noundef %0, ptr noundef nonnull @.str.122, i32 noundef %15) #6
  br label %29

29:                                               ; preds = %27, %25
  %indvars.iv.next.i = add nuw nsw i64 %indvars.iv.i, 1
  %exitcond.not.i = icmp eq i64 %indvars.iv.next.i, %wide.trip.count.i
  br i1 %exitcond.not.i, label %._crit_edge.i, label %.lr.ph22.i, !llvm.loop !21

._crit_edge.i:                                    ; preds = %29, %9
  %30 = call i32 @BIO_puts(ptr noundef %0, ptr noundef nonnull @.str.1) #6
  br label %ssl_print_client_cert_types.exit

ssl_print_client_cert_types.exit:                 ; preds = %6, %._crit_edge.i
  call void @llvm.lifetime.end.p0(i64 8, ptr nonnull %3) #6
  br label %31

31:                                               ; preds = %ssl_print_client_cert_types.exit, %2
  call fastcc void @do_print_sigalgs(ptr noundef %0, ptr noundef %1, i32 noundef 0)
  call fastcc void @do_print_sigalgs(ptr noundef %0, ptr noundef %1, i32 noundef 1)
  %32 = call i64 @SSL_ctrl(ptr noundef %1, i32 noundef 108, i64 noundef 0, ptr noundef nonnull %4) #6
  %33 = icmp ne i64 %32, 0
  %34 = load i32, ptr %4, align 4
  %35 = icmp ne i32 %34, 0
  %or.cond = select i1 %33, i1 %35, i1 false
  br i1 %or.cond, label %36, label %39

36:                                               ; preds = %31
  %37 = call ptr @OBJ_nid2sn(i32 noundef %34) #6
  %38 = call i32 (ptr, ptr, ...) @BIO_printf(ptr noundef %0, ptr noundef nonnull @.str.15, ptr noundef %37) #6
  br label %39

39:                                               ; preds = %36, %31
  %40 = call i32 @SSL_get_peer_signature_type_nid(ptr noundef %1, ptr noundef nonnull %4) #6
  %.not12 = icmp eq i32 %40, 0
  br i1 %.not12, label %54, label %41

41:                                               ; preds = %39
  %42 = load i32, ptr %4, align 4, !tbaa !22
  switch i32 %42, label %51 [
    i32 6, label %get_sigtype.exit
    i32 912, label %43
    i32 116, label %44
    i32 408, label %45
    i32 1087, label %46
    i32 1088, label %47
    i32 811, label %48
    i32 979, label %49
    i32 980, label %50
  ]

43:                                               ; preds = %41
  br label %get_sigtype.exit

44:                                               ; preds = %41
  br label %get_sigtype.exit

45:                                               ; preds = %41
  br label %get_sigtype.exit

46:                                               ; preds = %41
  br label %get_sigtype.exit

47:                                               ; preds = %41
  br label %get_sigtype.exit

48:                                               ; preds = %41
  br label %get_sigtype.exit

49:                                               ; preds = %41
  br label %get_sigtype.exit

50:                                               ; preds = %41
  br label %get_sigtype.exit

51:                                               ; preds = %41
  %52 = call ptr @OBJ_nid2sn(i32 noundef %42) #6
  br label %get_sigtype.exit

get_sigtype.exit:                                 ; preds = %41, %43, %44, %45, %46, %47, %48, %49, %50, %51
  %.0.i = phi ptr [ %52, %51 ], [ @.str.153, %50 ], [ @.str.152, %49 ], [ @.str.151, %48 ], [ @.str.150, %47 ], [ @.str.149, %46 ], [ @.str.148, %45 ], [ @.str.147, %44 ], [ @.str.146, %43 ], [ @.str.145, %41 ]
  %53 = call i32 (ptr, ptr, ...) @BIO_printf(ptr noundef %0, ptr noundef nonnull @.str.16, ptr noundef %.0.i) #6
  br label %54

54:                                               ; preds = %get_sigtype.exit, %39
  call void @llvm.lifetime.end.p0(i64 4, ptr nonnull %4) #6
  ret i32 1
}